target datalayout = "e-m:e-p270:32:32-p271:32:32-p272:64:64-i64:64-i128:128-f80:128-n8:16:32:64-S128"
target triple = "x86_64-pc-linux-gnu"

%struct.camelsrt_info_t = type { i32, ptr, i8, [10 x i8], [10 x %struct.camelsrt_msginfo_t] }
%struct.camelsrt_msginfo_t = type { i8, i8, i8, %struct.nstime_t, %struct.nstime_t }
%struct.nstime_t = type { i64, i32 }
%struct._GArray = type { ptr, i32 }
%struct._srt_data_t = type { ptr, ptr }

; Function Attrs: null_pointer_is_valid sspstrong uwtable
define internal i32 @camelstat_packet(ptr noundef %0, ptr noundef %1, ptr noundef %2, ptr noundef %3, i32 noundef %4) #0 {
  %6 = alloca ptr, align 8
  %7 = alloca ptr, align 8
  %8 = alloca ptr, align 8
  %9 = alloca ptr, align 8
  %10 = alloca i32, align 4
  %11 = alloca i32, align 4
  %12 = alloca ptr, align 8
  %13 = alloca ptr, align 8
  %14 = alloca ptr, align 8
  %15 = alloca i32, align 4
  store ptr %0, ptr %6, align 8
  store ptr %1, ptr %7, align 8
  store ptr %2, ptr %8, align 8
  store ptr %3, ptr %9, align 8
  store i32 %4, ptr %10, align 4
  call void @llvm.lifetime.start.p0(i64 4, ptr %11) #11
  store i32 0, ptr %11, align 4
  call void @llvm.lifetime.start.p0(i64 8, ptr %12) #11
  call void @llvm.lifetime.start.p0(i64 8, ptr %13) #11
  %16 = load ptr, ptr %9, align 8
  store ptr %16, ptr %13, align 8
  call void @llvm.lifetime.start.p0(i64 8, ptr %14) #11
  %17 = load ptr, ptr %6, align 8
  store ptr %17, ptr %14, align 8
  call void @llvm.lifetime.start.p0(i64 4, ptr %15) #11
  store i32 1, ptr %15, align 4
  br label %18

18:                                               ; preds = %77, %5
  %19 = load i32, ptr %15, align 4
  %20 = icmp slt i32 %19, 10
  br i1 %20, label %21, label %80

21:                                               ; preds = %18
  %22 = load ptr, ptr %13, align 8
  %23 = getelementptr inbounds nuw %struct.camelsrt_info_t, ptr %22, i32 0, i32 3
  %24 = load i32, ptr %15, align 4
  %25 = sext i32 %24 to i64
  %26 = getelementptr [10 x i8], ptr %23, i64 0, i64 %25
  %27 = load i8, ptr %26, align 1
  %28 = zext i8 %27 to i32
  %29 = icmp ne i32 %28, 0
  br i1 %29, label %30, label %76

30:                                               ; preds = %21
  %31 = load ptr, ptr %13, align 8
  %32 = getelementptr inbounds nuw %struct.camelsrt_info_t, ptr %31, i32 0, i32 4
  %33 = load i32, ptr %15, align 4
  %34 = sext i32 %33 to i64
  %35 = getelementptr [10 x %struct.camelsrt_msginfo_t], ptr %32, i64 0, i64 %34
  %36 = getelementptr inbounds nuw %struct.camelsrt_msginfo_t, ptr %35, i32 0, i32 2
  %37 = load i8, ptr %36, align 2, !range !6, !noundef !7
  %38 = trunc i8 %37 to i1
  br i1 %38, label %39, label %76

39:                                               ; preds = %30
  %40 = load ptr, ptr %13, align 8
  %41 = getelementptr inbounds nuw %struct.camelsrt_info_t, ptr %40, i32 0, i32 4
  %42 = load i32, ptr %15, align 4
  %43 = sext i32 %42 to i64
  %44 = getelementptr [10 x %struct.camelsrt_msginfo_t], ptr %41, i64 0, i64 %43
  %45 = getelementptr inbounds nuw %struct.camelsrt_msginfo_t, ptr %44, i32 0, i32 0
  %46 = load i8, ptr %45, align 8, !range !6, !noundef !7
  %47 = trunc i8 %46 to i1
  br i1 %47, label %48, label %76

48:                                               ; preds = %39
  %49 = load ptr, ptr %13, align 8
  %50 = getelementptr inbounds nuw %struct.camelsrt_info_t, ptr %49, i32 0, i32 4
  %51 = load i32, ptr %15, align 4
  %52 = sext i32 %51 to i64
  %53 = getelementptr [10 x %struct.camelsrt_msginfo_t], ptr %50, i64 0, i64 %52
  %54 = getelementptr inbounds nuw %struct.camelsrt_msginfo_t, ptr %53, i32 0, i32 1
  %55 = load i8, ptr %54, align 1, !range !6, !noundef !7
  %56 = trunc i8 %55 to i1
  br i1 %56, label %76, label %57

57:                                               ; preds = %48
  %58 = load ptr, ptr %14, align 8
  %59 = getelementptr inbounds nuw %struct._srt_data_t, ptr %58, i32 0, i32 0
  %60 = load ptr, ptr %59, align 8
  %61 = getelementptr inbounds nuw %struct._GArray, ptr %60, i32 0, i32 0
  %62 = load ptr, ptr %61, align 8
  %63 = load i32, ptr %11, align 4
  %64 = zext i32 %63 to i64
  %65 = getelementptr ptr, ptr %62, i64 %64
  %66 = load ptr, ptr %65, align 8
  store ptr %66, ptr %12, align 8
  %67 = load ptr, ptr %12, align 8
  %68 = load i32, ptr %15, align 4
  %69 = load ptr, ptr %13, align 8
  %70 = getelementptr inbounds nuw %struct.camelsrt_info_t, ptr %69, i32 0, i32 4
  %71 = load i32, ptr %15, align 4
  %72 = sext i32 %71 to i64
  %73 = getelementptr [10 x %struct.camelsrt_msginfo_t], ptr %70, i64 0, i64 %72
  %74 = getelementptr inbounds nuw %struct.camelsrt_msginfo_t, ptr %73, i32 0, i32 3
  %75 = load ptr, ptr %7, align 8
  call void @add_srt_table_data(ptr noundef %67, i32 noundef %68, ptr noundef %74, ptr noundef %75)
  br label %76

76:                                               ; preds = %57, %48, %39, %30, %21
  br label %77

77:                                               ; preds = %76
  %78 = load i32, ptr %15, align 4
  %79 = add i32 %78, 1
  store i32 %79, ptr %15, align 4
  br label %18, !llvm.loop !11

80:                                               ; preds = %18
  call void @llvm.lifetime.end.p0(i64 4, ptr %15) #11
  call void @llvm.lifetime.end.p0(i64 8, ptr %14) #11
  call void @llvm.lifetime.end.p0(i64 8, ptr %13) #11
  call void @llvm.lifetime.end.p0(i64 8, ptr %12) #11
  call void @llvm.lifetime.end.p0(i64 4, ptr %11) #11
  ret i32 1
}