; Function Attrs: null_pointer_is_valid sspstrong uwtable
define internal noundef i32 @camelstat_packet(ptr noundef readonly captures(none) %0, ptr noundef %1, ptr readnone captures(none) %2, ptr noundef %3, i32 %4) #0 {
  %6 = getelementptr inbounds nuw i8, ptr %3, i64 17
  %7 = getelementptr inbounds nuw i8, ptr %3, i64 32
  br label %8

8:                                                ; preds = %5, %29
  %indvars.iv = phi i64 [ 1, %5 ], [ %indvars.iv.next, %29 ]
  %9 = getelementptr [10 x i8], ptr %6, i64 0, i64 %indvars.iv
  %10 = load i8, ptr %9, align 1
  %.not = icmp eq i8 %10, 0
  br i1 %.not, label %29, label %11

11:                                               ; preds = %8
  %12 = getelementptr [10 x %struct.camelsrt_msginfo_t], ptr %7, i64 0, i64 %indvars.iv
  %13 = getelementptr inbounds nuw i8, ptr %12, i64 2
  %14 = load i8, ptr %13, align 2, !range !6, !noundef !7
  %15 = trunc nuw i8 %14 to i1
  br i1 %15, label %16, label %29

16:                                               ; preds = %11
  %17 = load i8, ptr %12, align 8, !range !6, !noundef !7
  %18 = trunc nuw i8 %17 to i1
  br i1 %18, label %19, label %29

19:                                               ; preds = %16
  %20 = getelementptr inbounds nuw i8, ptr %12, i64 1
  %21 = load i8, ptr %20, align 1, !range !6, !noundef !7
  %22 = trunc nuw i8 %21 to i1
  br i1 %22, label %29, label %23

23:                                               ; preds = %19
  %24 = load ptr, ptr %0, align 8
  %25 = load ptr, ptr %24, align 8
  %26 = load ptr, ptr %25, align 8
  %27 = getelementptr inbounds nuw i8, ptr %12, i64 8
  %28 = trunc nuw nsw i64 %indvars.iv to i32
  tail call void @add_srt_table_data(ptr noundef %26, i32 noundef %28, ptr noundef nonnull %27, ptr noundef %1)
  br label %29

29:                                               ; preds = %8, %11, %16, %19, %23
  %indvars.iv.next = add nuw nsw i64 %indvars.iv, 1
  %exitcond.not = icmp eq i64 %indvars.iv.next, 10
  br i1 %exitcond.not, label %30, label %8, !llvm.loop !11

30:                                               ; preds = %29
  ret i32 1
}